target datalayout = "e-m:e-p270:32:32-p271:32:32-p272:64:64-i64:64-i128:128-f80:128-n8:16:32:64-S128"
target triple = "x86_64-pc-linux-gnu"

%struct.png_XYZ = type { i32, i32, i32, i32, i32, i32, i32, i32, i32 }
%struct.png_xy = type { i32, i32, i32, i32, i32, i32, i32, i32 }
%struct.png_struct_def = type { [1 x %struct.__jmp_buf_tag], ptr, ptr, i64, ptr, ptr, ptr, ptr, ptr, ptr, ptr, ptr, i8, i8, i32, i32, i32, i32, %struct.z_stream_s, i32, i32, i32, i32, i64, i32, i32, i32, ptr, ptr, i64, i32, i32, ptr, i16, i32, i16, i8, i8, i8, i8, i8, i8, i8, i8, i8, i8, i8, i8, i8, i8, i16, i8, i32, %struct.png_color_16_struct, %struct.png_color_16_struct, i32, i32, ptr, ptr, ptr, ptr, ptr, ptr, %struct.png_color_8_struct, %struct.png_color_8_struct, ptr, %struct.png_color_16_struct, ptr, ptr, ptr, ptr, ptr, ptr, ptr, ptr, ptr, i32, i32, i64, i64, i64, i64, i32, i32, ptr, ptr, [29 x i8], i32, ptr, ptr, i32, i32, ptr, i8, i8, i16, i16, ptr, i32, i8, ptr, ptr, ptr, ptr, ptr, ptr, ptr, i8, i32, i32, i32, i64, %struct.png_unknown_chunk_t, i64, ptr, i64, i32, i32, ptr, [4 x ptr], %struct.png_colorspace }
%struct.__jmp_buf_tag = type { [8 x i64], i32, %struct.__sigset_t }
%struct.__sigset_t = type { [16 x i64] }
%struct.z_stream_s = type { ptr, i32, i64, ptr, i32, i64, ptr, ptr, ptr, ptr, ptr, i32, i64, i64 }
%struct.png_color_8_struct = type { i8, i8, i8, i8, i8 }
%struct.png_color_16_struct = type { i8, i16, i16, i16, i16 }
%struct.png_unknown_chunk_t = type { [5 x i8], ptr, i64, i8 }
%struct.png_colorspace = type { i32, %struct.png_xy, %struct.png_XYZ, i16, i16 }

@.str.2 = private unnamed_addr constant [7 x i8] c"1.6.43\00", align 1
@.str.3 = private unnamed_addr constant [31 x i8] c"Application built with libpng-\00", align 1
@.str.4 = private unnamed_addr constant [19 x i8] c" but running with \00", align 1

; Function Attrs: nounwind uwtable
define hidden i32 @png_user_version_check(ptr noalias noundef %0, ptr noundef %1) #0 {
  %3 = alloca i32, align 4
  %4 = alloca ptr, align 8
  %5 = alloca ptr, align 8
  %6 = alloca i32, align 4
  %7 = alloca i32, align 4
  %8 = alloca i64, align 8
  %9 = alloca [128 x i8], align 16
  store ptr %0, ptr %4, align 8
  store ptr %1, ptr %5, align 8
  %10 = load ptr, ptr %5, align 8
  %11 = icmp ne ptr %10, null
  br i1 %11, label %12, label %66

12:                                               ; preds = %2
  store i32 -1, ptr %6, align 4
  store i32 0, ptr %7, align 4
  br label %13

13:                                               ; preds = %63, %12
  %14 = load i32, ptr %6, align 4
  %15 = add nsw i32 %14, 1
  store i32 %15, ptr %6, align 4
  %16 = load ptr, ptr %5, align 8
  %17 = load i32, ptr %6, align 4
  %18 = sext i32 %17 to i64
  %19 = getelementptr inbounds i8, ptr %16, i64 %18
  %20 = load i8, ptr %19, align 1
  %21 = sext i8 %20 to i32
  %22 = load i32, ptr %6, align 4
  %23 = sext i32 %22 to i64
  %24 = getelementptr inbounds [7 x i8], ptr @.str.2, i64 0, i64 %23
  %25 = load i8, ptr %24, align 1
  %26 = sext i8 %25 to i32
  %27 = icmp ne i32 %21, %26
  br i1 %27, label %28, label %33

28:                                               ; preds = %13
  %29 = load ptr, ptr %4, align 8
  %30 = getelementptr inbounds %struct.png_struct_def, ptr %29, i32 0, i32 15
  %31 = load i32, ptr %30, align 8
  %32 = or i32 %31, 131072
  store i32 %32, ptr %30, align 8
  br label %33

33:                                               ; preds = %28, %13
  %34 = load ptr, ptr %5, align 8
  %35 = load i32, ptr %6, align 4
  %36 = sext i32 %35 to i64
  %37 = getelementptr inbounds i8, ptr %34, i64 %36
  %38 = load i8, ptr %37, align 1
  %39 = sext i8 %38 to i32
  %40 = icmp eq i32 %39, 46
  br i1 %40, label %41, label %44

41:                                               ; preds = %33
  %42 = load i32, ptr %7, align 4
  %43 = add nsw i32 %42, 1
  store i32 %43, ptr %7, align 4
  br label %44

44:                                               ; preds = %41, %33
  br label %45

45:                                               ; preds = %44
  %46 = load i32, ptr %7, align 4
  %47 = icmp slt i32 %46, 2
  br i1 %47, label %48, label %63

48:                                               ; preds = %45
  %49 = load ptr, ptr %5, align 8
  %50 = load i32, ptr %6, align 4
  %51 = sext i32 %50 to i64
  %52 = getelementptr inbounds i8, ptr %49, i64 %51
  %53 = load i8, ptr %52, align 1
  %54 = sext i8 %53 to i32
  %55 = icmp ne i32 %54, 0
  br i1 %55, label %56, label %63

56:                                               ; preds = %48
  %57 = load i32, ptr %6, align 4
  %58 = sext i32 %57 to i64
  %59 = getelementptr inbounds [7 x i8], ptr @.str.2, i64 0, i64 %58
  %60 = load i8, ptr %59, align 1
  %61 = sext i8 %60 to i32
  %62 = icmp ne i32 %61, 0
  br label %63

63:                                               ; preds = %56, %48, %45
  %64 = phi i1 [ false, %48 ], [ false, %45 ], [ %62, %56 ]
  br i1 %64, label %13, label %65, !llvm.loop !8

65:                                               ; preds = %63
  br label %71

66:                                               ; preds = %2
  %67 = load ptr, ptr %4, align 8
  %68 = getelementptr inbounds %struct.png_struct_def, ptr %67, i32 0, i32 15
  %69 = load i32, ptr %68, align 8
  %70 = or i32 %69, 131072
  store i32 %70, ptr %68, align 8
  br label %71

71:                                               ; preds = %66, %65
  %72 = load ptr, ptr %4, align 8
  %73 = getelementptr inbounds %struct.png_struct_def, ptr %72, i32 0, i32 15
  %74 = load i32, ptr %73, align 8
  %75 = and i32 %74, 131072
  %76 = icmp ne i32 %75, 0
  br i1 %76, label %77, label %93

77:                                               ; preds = %71
  store i64 0, ptr %8, align 8
  %78 = getelementptr inbounds [128 x i8], ptr %9, i64 0, i64 0
  %79 = load i64, ptr %8, align 8
  %80 = call i64 @png_safecat(ptr noundef %78, i64 noundef 128, i64 noundef %79, ptr noundef @.str.3)
  store i64 %80, ptr %8, align 8
  %81 = getelementptr inbounds [128 x i8], ptr %9, i64 0, i64 0
  %82 = load i64, ptr %8, align 8
  %83 = load ptr, ptr %5, align 8
  %84 = call i64 @png_safecat(ptr noundef %81, i64 noundef 128, i64 noundef %82, ptr noundef %83)
  store i64 %84, ptr %8, align 8
  %85 = getelementptr inbounds [128 x i8], ptr %9, i64 0, i64 0
  %86 = load i64, ptr %8, align 8
  %87 = call i64 @png_safecat(ptr noundef %85, i64 noundef 128, i64 noundef %86, ptr noundef @.str.4)
  store i64 %87, ptr %8, align 8
  %88 = getelementptr inbounds [128 x i8], ptr %9, i64 0, i64 0
  %89 = load i64, ptr %8, align 8
  %90 = call i64 @png_safecat(ptr noundef %88, i64 noundef 128, i64 noundef %89, ptr noundef @.str.2)
  store i64 %90, ptr %8, align 8
  %91 = load ptr, ptr %4, align 8
  %92 = getelementptr inbounds [128 x i8], ptr %9, i64 0, i64 0
  call void @png_warning(ptr noundef %91, ptr noundef %92)
  store i32 0, ptr %3, align 4
  br label %94

93:                                               ; preds = %71
  store i32 1, ptr %3, align 4
  br label %94

94:                                               ; preds = %93, %77
  %95 = load i32, ptr %3, align 4
  ret i32 %95
}