; Function Attrs: nounwind uwtable
define hidden range(i32 0, 2) i32 @png_user_version_check(ptr noalias noundef %0, ptr noundef %1) local_unnamed_addr #0 {
  %3 = alloca [128 x i8], align 16
  %.not = icmp eq ptr %1, null
  %4 = getelementptr inbounds i8, ptr %0, i64 296
  br i1 %.not, label %.critedge.thread, label %.preheader

.preheader:                                       ; preds = %2, %16
  %indvars.iv = phi i64 [ %indvars.iv.next, %16 ], [ -1, %2 ]
  %.021 = phi i32 [ %spec.select, %16 ], [ 0, %2 ]
  %indvars.iv.next = add nsw i64 %indvars.iv, 1
  %5 = getelementptr inbounds i8, ptr %1, i64 %indvars.iv.next
  %6 = load i8, ptr %5, align 1
  %7 = getelementptr inbounds [7 x i8], ptr @.str.2, i64 0, i64 %indvars.iv.next
  %8 = load i8, ptr %7, align 1
  %.not24 = icmp eq i8 %6, %8
  br i1 %.not24, label %12, label %9

9:                                                ; preds = %.preheader
  %10 = load i32, ptr %4, align 8
  %11 = or i32 %10, 131072
  store i32 %11, ptr %4, align 8
  br label %12

12:                                               ; preds = %9, %.preheader
  %13 = icmp eq i8 %6, 46
  %14 = zext i1 %13 to i32
  %spec.select = add nuw nsw i32 %.021, %14
  %15 = icmp ult i32 %spec.select, 2
  br i1 %15, label %16, label %.critedge

16:                                               ; preds = %12
  %.not25 = icmp eq i8 %6, 0
  %.not26 = icmp eq i64 %indvars.iv.next, 6
  %or.cond = or i1 %.not26, %.not25
  br i1 %or.cond, label %.critedge, label %.preheader, !llvm.loop !8

.critedge.thread:                                 ; preds = %2
  %17 = load i32, ptr %4, align 8
  %18 = or i32 %17, 131072
  store i32 %18, ptr %4, align 8
  br label %21

.critedge:                                        ; preds = %16, %12
  %.pre = load i32, ptr %4, align 8
  %19 = and i32 %.pre, 131072
  %20 = icmp eq i32 %19, 0
  br i1 %20, label %26, label %21

21:                                               ; preds = %.critedge.thread, %.critedge
  %22 = call i64 @png_safecat(ptr noundef nonnull %3, i64 noundef 128, i64 noundef 0, ptr noundef nonnull @.str.3) #29
  %23 = call i64 @png_safecat(ptr noundef nonnull %3, i64 noundef 128, i64 noundef %22, ptr noundef %1) #29
  %24 = call i64 @png_safecat(ptr noundef nonnull %3, i64 noundef 128, i64 noundef %23, ptr noundef nonnull @.str.4) #29
  %25 = call i64 @png_safecat(ptr noundef nonnull %3, i64 noundef 128, i64 noundef %24, ptr noundef nonnull @.str.2) #29
  call void @png_warning(ptr noundef nonnull %0, ptr noundef nonnull %3) #29
  br label %26

26:                                               ; preds = %.critedge, %21
  %.0 = phi i32 [ 0, %21 ], [ 1, %.critedge ]
  ret i32 %.0
}